target datalayout = "e-m:e-p270:32:32-p271:32:32-p272:64:64-i64:64-i128:128-f80:128-n8:16:32:64-S128"
target triple = "x86_64-pc-linux-gnu"

%struct.print_stream_ops = type { ptr, ptr, ptr, ptr, ptr, ptr, ptr }
%struct.print_stream = type { ptr, ptr }
%struct.output_ps = type { i8, ptr }

@.str = private unnamed_addr constant [2 x i8] c"w\00", align 1
@print_ps_ops = internal constant %struct.print_stream_ops { ptr @print_preamble_ps, ptr @print_line_ps, ptr null, ptr @print_bookmark_ps, ptr @new_page_ps, ptr @print_finale_ps, ptr @destroy_ps }, align 8

; Function Attrs: null_pointer_is_valid sspstrong uwtable
define internal ptr @print_stream_ps_alloc(i1 noundef zeroext %0, ptr noundef %1) #0 {
  %3 = alloca i8, align 1
  %4 = alloca ptr, align 8
  %5 = alloca ptr, align 8
  %6 = alloca ptr, align 8
  %7 = alloca i64, align 8
  %8 = alloca i64, align 8
  %9 = alloca ptr, align 8
  %10 = alloca ptr, align 8
  %11 = zext i1 %0 to i8
  store i8 %11, ptr %3, align 1
  store ptr %1, ptr %4, align 8
  call void @llvm.lifetime.start.p0(i64 8, ptr %5) #11
  call void @llvm.lifetime.start.p0(i64 8, ptr %6) #11
  %12 = call noalias ptr @g_malloc(i64 noundef 16) #12
  store ptr %12, ptr %6, align 8
  %13 = load i8, ptr %3, align 1, !range !6, !noundef !7
  %14 = trunc i8 %13 to i1
  %15 = load ptr, ptr %6, align 8
  %16 = getelementptr inbounds nuw %struct.output_ps, ptr %15, i32 0, i32 0
  %17 = zext i1 %14 to i8
  store i8 %17, ptr %16, align 8
  %18 = load ptr, ptr %4, align 8
  %19 = load ptr, ptr %6, align 8
  %20 = getelementptr inbounds nuw %struct.output_ps, ptr %19, i32 0, i32 1
  store ptr %18, ptr %20, align 8
  call void @llvm.lifetime.start.p0(i64 8, ptr %7) #11
  store i64 1, ptr %7, align 8
  call void @llvm.lifetime.start.p0(i64 8, ptr %8) #11
  store i64 16, ptr %8, align 8
  call void @llvm.lifetime.start.p0(i64 8, ptr %9) #11
  %21 = load i64, ptr %8, align 8
  %22 = icmp eq i64 %21, 1
  br i1 %22, label %23, label %26

23:                                               ; preds = %2
  %24 = load i64, ptr %7, align 8
  %25 = call noalias ptr @g_malloc(i64 noundef %24) #12
  store ptr %25, ptr %9, align 8
  br label %47

26:                                               ; preds = %2
  %27 = load i64, ptr %7, align 8
  %28 = call i1 @llvm.is.constant.i64(i64 %27)
  br i1 %28, label %29, label %42

29:                                               ; preds = %26
  %30 = load i64, ptr %8, align 8
  %31 = icmp eq i64 %30, 0
  br i1 %31, label %37, label %32

32:                                               ; preds = %29
  %33 = load i64, ptr %7, align 8
  %34 = load i64, ptr %8, align 8
  %35 = udiv i64 -1, %34
  %36 = icmp ule i64 %33, %35
  br i1 %36, label %37, label %42

37:                                               ; preds = %32, %29
  %38 = load i64, ptr %7, align 8
  %39 = load i64, ptr %8, align 8
  %40 = mul i64 %38, %39
  %41 = call noalias ptr @g_malloc(i64 noundef %40) #12
  store ptr %41, ptr %9, align 8
  br label %46

42:                                               ; preds = %32, %26
  %43 = load i64, ptr %7, align 8
  %44 = load i64, ptr %8, align 8
  %45 = call noalias ptr @g_malloc_n(i64 noundef %43, i64 noundef %44) #14
  store ptr %45, ptr %9, align 8
  br label %46

46:                                               ; preds = %42, %37
  br label %47

47:                                               ; preds = %46, %23
  %48 = load ptr, ptr %9, align 8
  store ptr %48, ptr %10, align 8
  call void @llvm.lifetime.end.p0(i64 8, ptr %9) #11
  call void @llvm.lifetime.end.p0(i64 8, ptr %8) #11
  call void @llvm.lifetime.end.p0(i64 8, ptr %7) #11
  %49 = load ptr, ptr %10, align 8
  store ptr %49, ptr %5, align 8
  %50 = load ptr, ptr %5, align 8
  %51 = getelementptr inbounds nuw %struct.print_stream, ptr %50, i32 0, i32 0
  store ptr @print_ps_ops, ptr %51, align 8
  %52 = load ptr, ptr %6, align 8
  %53 = load ptr, ptr %5, align 8
  %54 = getelementptr inbounds nuw %struct.print_stream, ptr %53, i32 0, i32 1
  store ptr %52, ptr %54, align 8
  %55 = load ptr, ptr %5, align 8
  call void @llvm.lifetime.end.p0(i64 8, ptr %6) #11
  call void @llvm.lifetime.end.p0(i64 8, ptr %5) #11
  ret ptr %55
}

; Function Attrs: null_pointer_is_valid sspstrong uwtable
define internal ptr @open_print_dest(i1 noundef zeroext %0, ptr noundef %1) #0 {
  %3 = alloca i8, align 1
  %4 = alloca ptr, align 8
  %5 = alloca ptr, align 8
  %6 = zext i1 %0 to i8
  store i8 %6, ptr %3, align 1
  store ptr %1, ptr %4, align 8
  call void @llvm.lifetime.start.p0(i64 8, ptr %5) #11
  %7 = load i8, ptr %3, align 1, !range !6, !noundef !7
  %8 = trunc i8 %7 to i1
  br i1 %8, label %9, label %12

9:                                                ; preds = %2
  %10 = load ptr, ptr %4, align 8
  %11 = call noalias ptr @fopen(ptr noundef %10, ptr noundef @.str)
  store ptr %11, ptr %5, align 8
  br label %15

12:                                               ; preds = %2
  %13 = load ptr, ptr %4, align 8
  %14 = call noalias ptr @popen(ptr noundef %13, ptr noundef @.str)
  store ptr %14, ptr %5, align 8
  br label %15

15:                                               ; preds = %12, %9
  %16 = load ptr, ptr %5, align 8
  call void @llvm.lifetime.end.p0(i64 8, ptr %5) #11
  ret ptr %16
}

; Function Attrs: null_pointer_is_valid sspstrong uwtable
define ptr @print_stream_ps_new(i1 noundef zeroext %0, ptr noundef %1) #0 {
  %3 = alloca ptr, align 8
  %4 = alloca i8, align 1
  %5 = alloca ptr, align 8
  %6 = alloca ptr, align 8
  %7 = alloca i32, align 4
  %8 = zext i1 %0 to i8
  store i8 %8, ptr %4, align 1
  store ptr %1, ptr %5, align 8
  call void @llvm.lifetime.start.p0(i64 8, ptr %6) #11
  %9 = load i8, ptr %4, align 1, !range !6, !noundef !7
  %10 = trunc i8 %9 to i1
  %11 = load ptr, ptr %5, align 8
  %12 = call ptr @open_print_dest(i1 noundef zeroext %10, ptr noundef %11)
  store ptr %12, ptr %6, align 8
  %13 = load ptr, ptr %6, align 8
  %14 = icmp eq ptr %13, null
  br i1 %14, label %15, label %16

15:                                               ; preds = %2
  store ptr null, ptr %3, align 8
  store i32 1, ptr %7, align 4
  br label %21

16:                                               ; preds = %2
  %17 = load i8, ptr %4, align 1, !range !6, !noundef !7
  %18 = trunc i8 %17 to i1
  %19 = load ptr, ptr %6, align 8
  %20 = call ptr @print_stream_ps_alloc(i1 noundef zeroext %18, ptr noundef %19)
  store ptr %20, ptr %3, align 8
  store i32 1, ptr %7, align 4
  br label %21

21:                                               ; preds = %16, %15
  call void @llvm.lifetime.end.p0(i64 8, ptr %6) #11
  %22 = load ptr, ptr %3, align 8
  ret ptr %22
}