; Function Attrs: null_pointer_is_valid sspstrong uwtable
define noalias noundef ptr @print_stream_ps_new(i1 noundef zeroext %0, ptr noundef readonly captures(none) %1) local_unnamed_addr #0 {
  br i1 %0, label %3, label %5

3:                                                ; preds = %2
  %4 = tail call noalias ptr @fopen(ptr noundef readonly %1, ptr noundef nonnull @.str)
  br label %open_print_dest.exit

5:                                                ; preds = %2
  %6 = tail call noalias ptr @popen(ptr noundef readonly %1, ptr noundef nonnull @.str)
  br label %open_print_dest.exit

open_print_dest.exit:                             ; preds = %3, %5
  %.0.i = phi ptr [ %4, %3 ], [ %6, %5 ]
  %7 = icmp eq ptr %.0.i, null
  br i1 %7, label %14, label %8

8:                                                ; preds = %open_print_dest.exit
  %9 = zext i1 %0 to i8
  %10 = tail call noalias dereferenceable_or_null(16) ptr @g_malloc(i64 noundef 16) #12
  store i8 %9, ptr %10, align 8
  %11 = getelementptr inbounds nuw i8, ptr %10, i64 8
  store ptr %.0.i, ptr %11, align 8
  %12 = tail call noalias noundef dereferenceable_or_null(16) ptr @g_malloc(i64 noundef 16) #12
  store ptr @print_ps_ops, ptr %12, align 8
  %13 = getelementptr inbounds nuw i8, ptr %12, i64 8
  store ptr %10, ptr %13, align 8
  br label %14

14:                                               ; preds = %open_print_dest.exit, %8
  %.0 = phi ptr [ %12, %8 ], [ null, %open_print_dest.exit ]
  ret ptr %.0
}